target datalayout = "e-m:e-p270:32:32-p271:32:32-p272:64:64-i64:64-i128:128-f80:128-n8:16:32:64-S128"
target triple = "x86_64-unknown-linux-gnu"

%"struct.Imf_3_2::Image::ChannelInfo" = type <{ i32, i32, i32, i8, [3 x i8] }>

; Function Attrs: mustprogress nounwind uwtable
define hidden void @_ZN7Imf_3_25Image11ChannelInfoC2ENS_9PixelTypeEiib(ptr noundef nonnull align 4 dereferenceable(13) %this, i32 noundef %type, i32 noundef %xSampling, i32 noundef %ySampling, i1 noundef zeroext %pLinear) unnamed_addr #5 align 2 {
entry:
  %this.addr = alloca ptr, align 8
  %type.addr = alloca i32, align 4
  %xSampling.addr = alloca i32, align 4
  %ySampling.addr = alloca i32, align 4
  %pLinear.addr = alloca i8, align 1
  store ptr %this, ptr %this.addr, align 8
  store i32 %type, ptr %type.addr, align 4
  store i32 %xSampling, ptr %xSampling.addr, align 4
  store i32 %ySampling, ptr %ySampling.addr, align 4
  %frombool = zext i1 %pLinear to i8
  store i8 %frombool, ptr %pLinear.addr, align 1
  %this1 = load ptr, ptr %this.addr, align 8
  %type2 = getelementptr inbounds %"struct.Imf_3_2::Image::ChannelInfo", ptr %this1, i32 0, i32 0
  %0 = load i32, ptr %type.addr, align 4
  store i32 %0, ptr %type2, align 4
  %xSampling3 = getelementptr inbounds %"struct.Imf_3_2::Image::ChannelInfo", ptr %this1, i32 0, i32 1
  %1 = load i32, ptr %xSampling.addr, align 4
  store i32 %1, ptr %xSampling3, align 4
  %ySampling4 = getelementptr inbounds %"struct.Imf_3_2::Image::ChannelInfo", ptr %this1, i32 0, i32 2
  %2 = load i32, ptr %ySampling.addr, align 4
  store i32 %2, ptr %ySampling4, align 4
  %pLinear5 = getelementptr inbounds %"struct.Imf_3_2::Image::ChannelInfo", ptr %this1, i32 0, i32 3
  %3 = load i8, ptr %pLinear.addr, align 1
  %tobool = trunc i8 %3 to i1
  %frombool6 = zext i1 %tobool to i8
  store i8 %frombool6, ptr %pLinear5, align 4
  ret void
}