; Function Attrs: mustprogress nofree norecurse nosync nounwind willreturn memory(argmem: write) uwtable
define hidden void @_ZN7Imf_3_25Image11ChannelInfoC2ENS_9PixelTypeEiib(ptr nocapture noundef nonnull writeonly align 4 dereferenceable(13) %this, i32 noundef %type, i32 noundef %xSampling, i32 noundef %ySampling, i1 noundef zeroext %pLinear) unnamed_addr #3 align 2 {
entry:
  %frombool = zext i1 %pLinear to i8
  store i32 %type, ptr %this, align 4
  %xSampling3 = getelementptr inbounds i8, ptr %this, i64 4
  store i32 %xSampling, ptr %xSampling3, align 4
  %ySampling4 = getelementptr inbounds i8, ptr %this, i64 8
  store i32 %ySampling, ptr %ySampling4, align 4
  %pLinear5 = getelementptr inbounds i8, ptr %this, i64 12
  store i8 %frombool, ptr %pLinear5, align 4
  ret void
}